; Function Attrs: mustprogress nounwind uwtable
define dso_local void @_ZNK4llvm10AsmPrinter17getNameWithPrefixERNS_15SmallVectorImplIcEEPKNS_11GlobalValueE(ptr nocapture noundef nonnull readonly align 8 dereferenceable(785) %0, ptr noundef nonnull align 8 dereferenceable(24) %1, ptr noundef %2) local_unnamed_addr #0 align 2 {
  %4 = getelementptr inbounds nuw i8, ptr %0, i64 56
  %5 = load ptr, ptr %4, align 8
  %6 = load ptr, ptr %5, align 8
  %7 = getelementptr inbounds i8, ptr %6, i64 24
  %8 = load ptr, ptr %7, align 8
  %9 = tail call noundef nonnull align 8 dereferenceable(968) ptr %8(ptr noundef nonnull align 8 dereferenceable(1232) %5) #33
  %10 = getelementptr inbounds nuw i8, ptr %9, i64 912
  %11 = load ptr, ptr %10, align 8
  tail call void @_ZNK4llvm13TargetMachine17getNameWithPrefixERNS_15SmallVectorImplIcEEPKNS_11GlobalValueERNS_7ManglerEb(ptr noundef nonnull align 8 dereferenceable(1232) %5, ptr noundef nonnull align 8 dereferenceable(24) %1, ptr noundef %2, ptr noundef nonnull align 8 dereferenceable(24) %11, i1 noundef zeroext false) #33
  ret void
}